target datalayout = "e-m:e-p270:32:32-p271:32:32-p272:64:64-i64:64-i128:128-f80:128-n8:16:32:64-S128"
target triple = "x86_64-pc-linux-gnu"

%struct.UriMemoryManagerStruct = type { ptr, ptr, ptr, ptr, ptr, ptr }

; Function Attrs: nounwind uwtable
define ptr @uriEmulateCalloc(ptr noundef %0, i64 noundef %1, i64 noundef %2) #0 {
  %4 = alloca ptr, align 8
  %5 = alloca ptr, align 8
  %6 = alloca i64, align 8
  %7 = alloca i64, align 8
  %8 = alloca ptr, align 8
  %9 = alloca i64, align 8
  %10 = alloca i32, align 4
  store ptr %0, ptr %5, align 8, !tbaa !3
  store i64 %1, ptr %6, align 8, !tbaa !14
  store i64 %2, ptr %7, align 8, !tbaa !14
  call void @llvm.lifetime.start.p0(i64 8, ptr %8) #9
  call void @llvm.lifetime.start.p0(i64 8, ptr %9) #9
  %11 = load i64, ptr %6, align 8, !tbaa !14
  %12 = load i64, ptr %7, align 8, !tbaa !14
  %13 = mul i64 %11, %12
  store i64 %13, ptr %9, align 8, !tbaa !14
  %14 = load ptr, ptr %5, align 8, !tbaa !3
  %15 = icmp eq ptr %14, null
  br i1 %15, label %16, label %18

16:                                               ; preds = %3
  %17 = call ptr @__errno_location() #10
  store i32 22, ptr %17, align 4, !tbaa !16
  store ptr null, ptr %4, align 8
  store i32 1, ptr %10, align 4
  br label %46

18:                                               ; preds = %3
  br label %19

19:                                               ; preds = %18
  %20 = load i64, ptr %6, align 8, !tbaa !14
  %21 = icmp ne i64 %20, 0
  br i1 %21, label %22, label %30

22:                                               ; preds = %19
  %23 = load i64, ptr %9, align 8, !tbaa !14
  %24 = load i64, ptr %6, align 8, !tbaa !14
  %25 = udiv i64 %23, %24
  %26 = load i64, ptr %7, align 8, !tbaa !14
  %27 = icmp ne i64 %25, %26
  br i1 %27, label %28, label %30

28:                                               ; preds = %22
  %29 = call ptr @__errno_location() #10
  store i32 12, ptr %29, align 4, !tbaa !16
  store ptr null, ptr %4, align 8
  store i32 1, ptr %10, align 4
  br label %46

30:                                               ; preds = %22, %19
  br label %31

31:                                               ; preds = %30
  br label %32

32:                                               ; preds = %31
  %33 = load ptr, ptr %5, align 8, !tbaa !3
  %34 = getelementptr inbounds nuw %struct.UriMemoryManagerStruct, ptr %33, i32 0, i32 0
  %35 = load ptr, ptr %34, align 8, !tbaa !8
  %36 = load ptr, ptr %5, align 8, !tbaa !3
  %37 = load i64, ptr %9, align 8, !tbaa !14
  %38 = call ptr %35(ptr noundef %36, i64 noundef %37)
  store ptr %38, ptr %8, align 8, !tbaa !18
  %39 = load ptr, ptr %8, align 8, !tbaa !18
  %40 = icmp eq ptr %39, null
  br i1 %40, label %41, label %42

41:                                               ; preds = %32
  store ptr null, ptr %4, align 8
  store i32 1, ptr %10, align 4
  br label %46

42:                                               ; preds = %32
  %43 = load ptr, ptr %8, align 8, !tbaa !18
  %44 = load i64, ptr %9, align 8, !tbaa !14
  call void @llvm.memset.p0.i64(ptr align 1 %43, i8 0, i64 %44, i1 false)
  %45 = load ptr, ptr %8, align 8, !tbaa !18
  store ptr %45, ptr %4, align 8
  store i32 1, ptr %10, align 4
  br label %46

46:                                               ; preds = %42, %41, %28, %16
  call void @llvm.lifetime.end.p0(i64 8, ptr %9) #9
  call void @llvm.lifetime.end.p0(i64 8, ptr %8) #9
  %47 = load ptr, ptr %4, align 8
  ret ptr %47
}