; Function Attrs: nounwind uwtable
define ptr @uriEmulateCalloc(ptr noundef %0, i64 noundef %1, i64 noundef %2) #1 {
  %mul = tail call { i64, i1 } @llvm.umul.with.overflow.i64(i64 %1, i64 %2)
  %mul.val = extractvalue { i64, i1 } %mul, 0
  %4 = icmp eq ptr %0, null
  br i1 %4, label %5, label %7

5:                                                ; preds = %3
  %6 = tail call ptr @__errno_location() #14
  store i32 22, ptr %6, align 4, !tbaa !12
  br label %15

7:                                                ; preds = %3
  %mul.ov = extractvalue { i64, i1 } %mul, 1
  br i1 %mul.ov, label %8, label %10

8:                                                ; preds = %7
  %9 = tail call ptr @__errno_location() #14
  store i32 12, ptr %9, align 4, !tbaa !12
  br label %15

10:                                               ; preds = %7
  %11 = load ptr, ptr %0, align 8, !tbaa !3
  %12 = tail call ptr %11(ptr noundef nonnull %0, i64 noundef %mul.val) #15
  %13 = icmp eq ptr %12, null
  br i1 %13, label %15, label %14

14:                                               ; preds = %10
  tail call void @llvm.memset.p0.i64(ptr nonnull align 1 %12, i8 0, i64 %mul.val, i1 false)
  br label %15

15:                                               ; preds = %10, %14, %8, %5
  %.0 = phi ptr [ null, %5 ], [ null, %8 ], [ %12, %14 ], [ null, %10 ]
  ret ptr %.0
}